(dp1
I15
S'2'
sI16
S'0'
sI17
S'0'
sI18
S'0'
sI19
S'0'
sI20
S'0'
sI21
S'0'
sI22
S'0'
sI23
S'0'
sI24
S'0'
sI25
S'0'
sI26
S'0'
sI27
S'0'
sI28
S'0'
sI29
S'0'
sI30
S'0'
sI31
S'0'
sI32
S'0'
sI33
S'0'
sI34
S'0'
sI35
S'0'
sI36
S'0'
sI37
S'0'
sI38
S'0'
sI39
S'0'
sI40
S'0'
sI41
S'0'
sI42
S'0'
sI43
S'0'
sI44
S'0'
sI45
S'0'
sI46
S'1'
sI47
S'0'
sI48
S'0'
sI49
S'0'
sI50
S'0'
sI51
S'0'
sI52
S'1'
sI53
S'0'
sI54
S'0'
sI55
S'0'
sI56
S'0'
sI57
S'0'
sI58
S'0'
sI59
S'0'
sI60
S'0'
sI61
S'0'
sI62
S'0'
sI63
S'0'
sI64
S'0'
sI65
S'0'
sI66
S'0'
sI67
S'0'
sI68
S'1'
sI69
S'0'
sI70
S'0'
sI71
S'0'
sI72
S'0'
sI73
S'0'
sI74
S'0'
sI75
S'0'
sI76
S'1'
sI77
S'1'
sI78
S'0'
sI79
S'0'
sI80
S'0'
sI81
S'0'
sI122
S'0'
sI123
S'0'
sI124
S'1'
sI125
S'1'
sI126
S'0'
sI127
S'0'
sI128
S'0'
sI129
S'0'
sI130
S'1'
sI131
S'0'
sI132
S'0'
sI133
S'0'
sI134
S'0'
sI135
S'0'
sI136
S'0'
sI137
S'0'
sI138
S'0'
sI139
S'0'
sI140
S'0'
sI141
S'0'
sI142
S'0'
sI143
S'0'
sI144
S'0'
sI145
S'0'
sI146
S'0'
sI147
S'0'
sI148
S'1'
sI149
S'0'
sI150
S'1'
sI151
S'0'
sI152
S'0'
sI154
S'0'
sI155
S'0'
sI156
S'1'
sI157
S'0'
sI158
S'0'
sI159
S'0'
sI160
S'0'
sI161
S'0'
sI162
S'0'
sI163
S'0'
sI164
S'1'
sI165
S'0'
sI166
S'2'
sI167
S'1'
sI168
S'0'
sI169
S'0'
sI170
S'0'
sI171
S'2'
sI172
S'0'
sI173
S'0'
sI174
S'2'
sI175
S'0'
sI176
S'2'
sI177
S'0'
sI178
S'1'
sI179
S'0'
sI180
S'1'
sI181
S'0'
sI182
S'1'
sI183
S'0'
sI184
S'0'
sI185
S'0'
sI186
S'0'
sI187
S'0'
sI188
S'0'
sI189
S'0'
sI190
S'1'
sI191
S'0'
sI192
S'0'
sI193
S'0'
sI194
S'0'
sI195
S'0'
sI196
S'0'
sI197
S'0'
sI198
S'1'
sI199
S'0'
sI200
S'0'
sI201
S'1'
sI202
S'3'
sI203
S'0'
sI204
S'2'
sI205
S'1'
sI206
S'0'
sI207
S'0'
sI208
S'0'
sI248
S'0'
sI249
S'0'
sI250
S'0'
sI251
S'0'
sI252
S'0'
sI253
S'1'
sI254
S'0'
sI255
S'3'
sI256
S'1'
sI257
S'0'
sI258
S'0'
sI259
S'0'
sI260
S'0'
sI261
S'1'
sI262
S'0'
sI263
S'0'
sI264
S'0'
sI265
S'2'
sI266
S'3'
sI267
S'0'
sI268
S'1'
sI269
S'2'
sI270
S'0'
sI271
S'0'
sI272
S'0'
sI273
S'0'
sI274
S'0'
sI275
S'0'
sI276
S'0'
sI277
S'0'
sI278
S'1'
sI279
S'0'
sI280
S'0'
sI281
S'0'
sI282
S'1'
sI283
S'0'
sI284
S'3'
sI285
S'1'
sI286
S'0'
sI287
S'0'
sI288
S'0'
sI289
S'1'
sI290
S'1'
sI291
S'4'
sI292
S'0'
sI293
S'0'
sI294
S'1'
sI295
S'0'
sI296
S'0'
sI297
S'0'
sI298
S'0'
sI299
S'0'
sI300
S'2'
sI301
S'0'
sI302
S'0'
sI303
S'1'
sI323
S'2'
sI324
S'0'
sI325
S'0'
sI326
S'0'
sI327
S'1'
sI328
S'1'
sI329
S'0'
sI330
S'0'
sI331
S'0'
sI332
S'0'
sI333
S'0'
sI334
S'1'
sI335
S'0'
sI336
S'1'
sI338
S'0'
sI339
S'6'
sI340
S'0'
sI341
S'0'
sI342
S'1'
sI343
S'0'
sI344
S'0'
sI345
S'0'
sI346
S'0'
sI347
S'1'
sI348
S'0'
sI349
S'2'
sI350
S'0'
sI351
S'3'
sI352
S'0'
sI353
S'0'
sI354
S'2'
sI355
S'0'
sI356
S'0'
sI357
S'0'
sI358
S'0'
sI360
S'0'
sI362
S'3'
sI363
S'4'
sI364
S'0'
sI366
S'1'
sI367
S'0'
sI368
S'0'
sI369
S'5'
sI370
S'11'
p2
sI371
S'4'
sI372
S'3'
sI373
S'3'
sI374
S'1'
sI375
S'0'
sI376
S'0'
sI377
S'0'
sI378
S'0'
sI379
S'1'
sI380
S'2'
sI382
S'0'
sI383
S'0'
sI384
S'1'
sI385
S'1'
sI386
S'0'
sI387
S'3'
sI450
S'0'
sI451
S'0'
sI452
S'4'
sI453
S'0'
sI454
S'0'
sI456
S'1'
sI457
S'3'
sI458
S'1'
sI459
S'1'
sI460
S'0'
sI461
S'6'
sI463
S'5'
sI464
S'0'
sI465
S'1'
sI466
S'2'
sI467
S'2'
sI468
S'0'
sI469
S'0'
sI470
S'1'
sI471
S'1'
sI472
S'733'
p3
sI473
S'0'
sI474
S'0'
sI475
S'0'
sI476
S'0'
sI477
S'0'
sI478
S'0'
sI479
S'2'
s.